
Kabeltester200716.elf:     file format elf32-avr

Sections:
Idx Name          Size      VMA       LMA       File off  Algn
  0 .text         0000093a  00000000  00000000  00000094  2**1
                  CONTENTS, ALLOC, LOAD, READONLY, CODE
  1 .data         00000298  00800060  0000093a  000009ce  2**0
                  CONTENTS, ALLOC, LOAD, DATA
  2 .bss          00000074  008002f8  008002f8  00000c66  2**0
                  ALLOC
  3 .comment      00000030  00000000  00000000  00000c66  2**0
                  CONTENTS, READONLY
  4 .note.gnu.avr.deviceinfo 0000003c  00000000  00000000  00000c98  2**2
                  CONTENTS, READONLY
  5 .debug_aranges 000000c0  00000000  00000000  00000cd4  2**0
                  CONTENTS, READONLY, DEBUGGING
  6 .debug_info   00001427  00000000  00000000  00000d94  2**0
                  CONTENTS, READONLY, DEBUGGING
  7 .debug_abbrev 00000842  00000000  00000000  000021bb  2**0
                  CONTENTS, READONLY, DEBUGGING
  8 .debug_line   00000a17  00000000  00000000  000029fd  2**0
                  CONTENTS, READONLY, DEBUGGING
  9 .debug_frame  00000280  00000000  00000000  00003414  2**2
                  CONTENTS, READONLY, DEBUGGING
 10 .debug_str    000004b4  00000000  00000000  00003694  2**0
                  CONTENTS, READONLY, DEBUGGING
 11 .debug_loc    00000ea7  00000000  00000000  00003b48  2**0
                  CONTENTS, READONLY, DEBUGGING
 12 .debug_ranges 000000f8  00000000  00000000  000049ef  2**0
                  CONTENTS, READONLY, DEBUGGING

Disassembly of section .text:

00000000 <__vectors>:
   0:	0c 94 2a 00 	jmp	0x54	; 0x54 <__ctors_end>
   4:	0c 94 47 00 	jmp	0x8e	; 0x8e <__bad_interrupt>
   8:	0c 94 47 00 	jmp	0x8e	; 0x8e <__bad_interrupt>
   c:	0c 94 47 00 	jmp	0x8e	; 0x8e <__bad_interrupt>
  10:	0c 94 47 00 	jmp	0x8e	; 0x8e <__bad_interrupt>
  14:	0c 94 47 00 	jmp	0x8e	; 0x8e <__bad_interrupt>
  18:	0c 94 47 00 	jmp	0x8e	; 0x8e <__bad_interrupt>
  1c:	0c 94 47 00 	jmp	0x8e	; 0x8e <__bad_interrupt>
  20:	0c 94 47 00 	jmp	0x8e	; 0x8e <__bad_interrupt>
  24:	0c 94 47 00 	jmp	0x8e	; 0x8e <__bad_interrupt>
  28:	0c 94 47 00 	jmp	0x8e	; 0x8e <__bad_interrupt>
  2c:	0c 94 47 00 	jmp	0x8e	; 0x8e <__bad_interrupt>
  30:	0c 94 47 00 	jmp	0x8e	; 0x8e <__bad_interrupt>
  34:	0c 94 47 00 	jmp	0x8e	; 0x8e <__bad_interrupt>
  38:	0c 94 47 00 	jmp	0x8e	; 0x8e <__bad_interrupt>
  3c:	0c 94 47 00 	jmp	0x8e	; 0x8e <__bad_interrupt>
  40:	0c 94 47 00 	jmp	0x8e	; 0x8e <__bad_interrupt>
  44:	0c 94 47 00 	jmp	0x8e	; 0x8e <__bad_interrupt>
  48:	0c 94 47 00 	jmp	0x8e	; 0x8e <__bad_interrupt>
  4c:	0c 94 47 00 	jmp	0x8e	; 0x8e <__bad_interrupt>
  50:	0c 94 47 00 	jmp	0x8e	; 0x8e <__bad_interrupt>

00000054 <__ctors_end>:
  54:	11 24       	eor	r1, r1
  56:	1f be       	out	0x3f, r1	; 63
  58:	cf e5       	ldi	r28, 0x5F	; 95
  5a:	d4 e0       	ldi	r29, 0x04	; 4
  5c:	de bf       	out	0x3e, r29	; 62
  5e:	cd bf       	out	0x3d, r28	; 61

00000060 <__do_copy_data>:
  60:	12 e0       	ldi	r17, 0x02	; 2
  62:	a0 e6       	ldi	r26, 0x60	; 96
  64:	b0 e0       	ldi	r27, 0x00	; 0
  66:	ea e3       	ldi	r30, 0x3A	; 58
  68:	f9 e0       	ldi	r31, 0x09	; 9
  6a:	02 c0       	rjmp	.+4      	; 0x70 <__do_copy_data+0x10>
  6c:	05 90       	lpm	r0, Z+
  6e:	0d 92       	st	X+, r0
  70:	a8 3f       	cpi	r26, 0xF8	; 248
  72:	b1 07       	cpc	r27, r17
  74:	d9 f7       	brne	.-10     	; 0x6c <__do_copy_data+0xc>

00000076 <__do_clear_bss>:
  76:	23 e0       	ldi	r18, 0x03	; 3
  78:	a8 ef       	ldi	r26, 0xF8	; 248
  7a:	b2 e0       	ldi	r27, 0x02	; 2
  7c:	01 c0       	rjmp	.+2      	; 0x80 <.do_clear_bss_start>

0000007e <.do_clear_bss_loop>:
  7e:	1d 92       	st	X+, r1

00000080 <.do_clear_bss_start>:
  80:	ac 36       	cpi	r26, 0x6C	; 108
  82:	b2 07       	cpc	r27, r18
  84:	e1 f7       	brne	.-8      	; 0x7e <.do_clear_bss_loop>
  86:	0e 94 b4 03 	call	0x768	; 0x768 <main>
  8a:	0c 94 9b 04 	jmp	0x936	; 0x936 <_exit>

0000008e <__bad_interrupt>:
  8e:	0c 94 00 00 	jmp	0	; 0x0 <__vectors>

00000092 <usart_init>:
	for(uint8_t i=0; i<4; i++)
	{
		uint8_t temp = (uint8_t)((payload >> (4*(3-i))) & mask);
		usart_TX_char(temp < 0xA ? temp+'0' : temp-0xA+'A');
	}
}
  92:	10 bc       	out	0x20, r1	; 32
  94:	83 e3       	ldi	r24, 0x33	; 51
  96:	89 b9       	out	0x09, r24	; 9
  98:	82 e0       	ldi	r24, 0x02	; 2
  9a:	8b b9       	out	0x0b, r24	; 11
  9c:	88 e0       	ldi	r24, 0x08	; 8
  9e:	8a b9       	out	0x0a, r24	; 10
  a0:	86 e8       	ldi	r24, 0x86	; 134
  a2:	80 bd       	out	0x20, r24	; 32
  a4:	08 95       	ret

000000a6 <usart_TX_char>:
  a6:	5d 9b       	sbis	0x0b, 5	; 11
  a8:	fe cf       	rjmp	.-4      	; 0xa6 <usart_TX_char>
  aa:	8c b9       	out	0x0c, r24	; 12
  ac:	08 95       	ret

000000ae <usart_TX_string>:
  ae:	cf 93       	push	r28
  b0:	df 93       	push	r29
  b2:	ec 01       	movw	r28, r24
  b4:	89 91       	ld	r24, Y+
  b6:	88 23       	and	r24, r24
  b8:	19 f0       	breq	.+6      	; 0xc0 <usart_TX_string+0x12>
  ba:	0e 94 53 00 	call	0xa6	; 0xa6 <usart_TX_char>
  be:	fa cf       	rjmp	.-12     	; 0xb4 <usart_TX_string+0x6>
  c0:	df 91       	pop	r29
  c2:	cf 91       	pop	r28
  c4:	08 95       	ret

000000c6 <usart_TX_dec>:

void usart_TX_dec(uint16_t payload)
{
  c6:	cf 92       	push	r12
  c8:	df 92       	push	r13
  ca:	ef 92       	push	r14
  cc:	ff 92       	push	r15
  ce:	0f 93       	push	r16
  d0:	1f 93       	push	r17
  d2:	cf 93       	push	r28
  d4:	df 93       	push	r29
  d6:	ec 01       	movw	r28, r24
	//CONVERT UNSIGNED INTEGER 2 DECIMAL NUMBERS AND SHOW IT IN 5 DIGITS
	uint8_t digits = 5; //Anzahl der Dezimalstellen
	char null = ' ';    //autospace vor 1.Ziffer
  d8:	00 e2       	ldi	r16, 0x20	; 32
}

void usart_TX_dec(uint16_t payload)
{
	//CONVERT UNSIGNED INTEGER 2 DECIMAL NUMBERS AND SHOW IT IN 5 DIGITS
	uint8_t digits = 5; //Anzahl der Dezimalstellen
  da:	15 e0       	ldi	r17, 0x05	; 5
	char null = ' ';    //autospace vor 1.Ziffer
	while(digits)
	{
		digits--;
  dc:	11 50       	subi	r17, 0x01	; 1
		uint32_t x = payload;
  de:	6e 01       	movw	r12, r28
  e0:	e1 2c       	mov	r14, r1
  e2:	f1 2c       	mov	r15, r1
	//CONVERT UNSIGNED INTEGER 2 DECIMAL NUMBERS AND SHOW IT IN 5 DIGITS
	uint8_t digits = 5; //Anzahl der Dezimalstellen
	char null = ' ';    //autospace vor 1.Ziffer
	while(digits)
	{
		digits--;
  e4:	e1 2f       	mov	r30, r17
		uint32_t x = payload;
		uint8_t m = digits;
		while(m)
  e6:	ee 23       	and	r30, r30
  e8:	a9 f0       	breq	.+42     	; 0x114 <usart_TX_dec+0x4e>
		{
			m--;
  ea:	e1 50       	subi	r30, 0x01	; 1
			//FULL UNSIGNED INTEGER DIV BY 10 
			x = ((x+1)*0x3333)>>17;
  ec:	a7 01       	movw	r20, r14
  ee:	96 01       	movw	r18, r12
  f0:	2f 5f       	subi	r18, 0xFF	; 255
  f2:	3f 4f       	sbci	r19, 0xFF	; 255
  f4:	4f 4f       	sbci	r20, 0xFF	; 255
  f6:	5f 4f       	sbci	r21, 0xFF	; 255
  f8:	a3 e3       	ldi	r26, 0x33	; 51
  fa:	b3 e3       	ldi	r27, 0x33	; 51
  fc:	0e 94 81 04 	call	0x902	; 0x902 <__muluhisi3>
 100:	6b 01       	movw	r12, r22
 102:	7c 01       	movw	r14, r24
 104:	81 e1       	ldi	r24, 0x11	; 17
 106:	f6 94       	lsr	r15
 108:	e7 94       	ror	r14
 10a:	d7 94       	ror	r13
 10c:	c7 94       	ror	r12
 10e:	8a 95       	dec	r24
 110:	d1 f7       	brne	.-12     	; 0x106 <usart_TX_dec+0x40>
 112:	e9 cf       	rjmp	.-46     	; 0xe6 <usart_TX_dec+0x20>
		}
		if(!x && digits)
 114:	c1 14       	cp	r12, r1
 116:	d1 04       	cpc	r13, r1
 118:	e1 04       	cpc	r14, r1
 11a:	f1 04       	cpc	r15, r1
 11c:	31 f4       	brne	.+12     	; 0x12a <usart_TX_dec+0x64>
 11e:	11 23       	and	r17, r17
 120:	21 f0       	breq	.+8      	; 0x12a <usart_TX_dec+0x64>
		{
			usart_TX_char(null);
 122:	80 2f       	mov	r24, r16
 124:	0e 94 53 00 	call	0xa6	; 0xa6 <usart_TX_char>
 128:	05 c0       	rjmp	.+10     	; 0x134 <usart_TX_dec+0x6e>
		}
		else
		{
			usart_TX_char(x + '0');
 12a:	80 e3       	ldi	r24, 0x30	; 48
 12c:	8c 0d       	add	r24, r12
 12e:	0e 94 53 00 	call	0xa6	; 0xa6 <usart_TX_char>
			null = '0';
 132:	00 e3       	ldi	r16, 0x30	; 48
	//CONVERT UNSIGNED INTEGER 2 DECIMAL NUMBERS AND SHOW IT IN 5 DIGITS
	uint8_t digits = 5; //Anzahl der Dezimalstellen
	char null = ' ';    //autospace vor 1.Ziffer
	while(digits)
	{
		digits--;
 134:	e1 2f       	mov	r30, r17
		{
			usart_TX_char(x + '0');
			null = '0';
		}
		m = digits;
		while(m)
 136:	ee 23       	and	r30, r30
 138:	51 f0       	breq	.+20     	; 0x14e <usart_TX_dec+0x88>
		{
			m--;
 13a:	e1 50       	subi	r30, 0x01	; 1
			x *= 10;
 13c:	aa e0       	ldi	r26, 0x0A	; 10
 13e:	b0 e0       	ldi	r27, 0x00	; 0
 140:	a7 01       	movw	r20, r14
 142:	96 01       	movw	r18, r12
 144:	0e 94 81 04 	call	0x902	; 0x902 <__muluhisi3>
 148:	6b 01       	movw	r12, r22
 14a:	7c 01       	movw	r14, r24
 14c:	f4 cf       	rjmp	.-24     	; 0x136 <usart_TX_dec+0x70>
		}
		payload = payload - x;
 14e:	cc 19       	sub	r28, r12
 150:	dd 09       	sbc	r29, r13
void usart_TX_dec(uint16_t payload)
{
	//CONVERT UNSIGNED INTEGER 2 DECIMAL NUMBERS AND SHOW IT IN 5 DIGITS
	uint8_t digits = 5; //Anzahl der Dezimalstellen
	char null = ' ';    //autospace vor 1.Ziffer
	while(digits)
 152:	11 11       	cpse	r17, r1
 154:	c3 cf       	rjmp	.-122    	; 0xdc <usart_TX_dec+0x16>
			m--;
			x *= 10;
		}
		payload = payload - x;
	}
}
 156:	df 91       	pop	r29
 158:	cf 91       	pop	r28
 15a:	1f 91       	pop	r17
 15c:	0f 91       	pop	r16
 15e:	ff 90       	pop	r15
 160:	ef 90       	pop	r14
 162:	df 90       	pop	r13
 164:	cf 90       	pop	r12
 166:	08 95       	ret

00000168 <showNet2Serial>:

void showNet2Serial(uint32_t net[])
{
 168:	af 92       	push	r10
 16a:	bf 92       	push	r11
 16c:	cf 92       	push	r12
 16e:	df 92       	push	r13
 170:	ef 92       	push	r14
 172:	ff 92       	push	r15
 174:	0f 93       	push	r16
 176:	1f 93       	push	r17
 178:	cf 93       	push	r28
 17a:	df 93       	push	r29
 17c:	d8 2f       	mov	r29, r24
 17e:	c9 2f       	mov	r28, r25
	usart_TX_string("\n");
 180:	80 e6       	ldi	r24, 0x60	; 96
 182:	91 e0       	ldi	r25, 0x01	; 1
 184:	0e 94 57 00 	call	0xae	; 0xae <usart_TX_string>
	usart_TX_string("o:drive G:got E:expects X:match\n");
 188:	80 ed       	ldi	r24, 0xD0	; 208
 18a:	90 e0       	ldi	r25, 0x00	; 0
 18c:	0e 94 57 00 	call	0xae	; 0xae <usart_TX_string>
	usart_TX_string("Pin 0.........................27\n");
 190:	81 ef       	ldi	r24, 0xF1	; 241
 192:	90 e0       	ldi	r25, 0x00	; 0
 194:	0e 94 57 00 	call	0xae	; 0xae <usart_TX_string>
	usart_TX_string("Pin 0    5    0    5    0    5 7\n");
 198:	83 e1       	ldi	r24, 0x13	; 19
 19a:	91 e0       	ldi	r25, 0x01	; 1
 19c:	0e 94 57 00 	call	0xae	; 0xae <usart_TX_string>
 1a0:	20 e6       	ldi	r18, 0x60	; 96
 1a2:	a2 2e       	mov	r10, r18
 1a4:	20 e0       	ldi	r18, 0x00	; 0
 1a6:	b2 2e       	mov	r11, r18
 1a8:	0d 2f       	mov	r16, r29
 1aa:	1c 2f       	mov	r17, r28
	for(int8_t i=0; i<MAXPINS; i++)
 1ac:	c0 e0       	ldi	r28, 0x00	; 0
	{
		uint32_t mark = 1;
		uint8_t  temp = 0;
		usart_TX_char(' ');
 1ae:	80 e2       	ldi	r24, 0x20	; 32
 1b0:	0e 94 53 00 	call	0xa6	; 0xa6 <usart_TX_char>
		if(i < 10)
 1b4:	ca 30       	cpi	r28, 0x0A	; 10
 1b6:	2c f4       	brge	.+10     	; 0x1c2 <showNet2Serial+0x5a>
		{
			usart_TX_char(' ');
 1b8:	80 e2       	ldi	r24, 0x20	; 32
 1ba:	0e 94 53 00 	call	0xa6	; 0xa6 <usart_TX_char>
			temp = i;
 1be:	8c 2f       	mov	r24, r28
 1c0:	0c c0       	rjmp	.+24     	; 0x1da <showNet2Serial+0x72>
		}
		else
		{
			if(i < 20)
 1c2:	c4 31       	cpi	r28, 0x14	; 20
 1c4:	2c f4       	brge	.+10     	; 0x1d0 <showNet2Serial+0x68>
			{
				usart_TX_char('1');
 1c6:	81 e3       	ldi	r24, 0x31	; 49
 1c8:	0e 94 53 00 	call	0xa6	; 0xa6 <usart_TX_char>
 1cc:	86 ef       	ldi	r24, 0xF6	; 246
 1ce:	04 c0       	rjmp	.+8      	; 0x1d8 <showNet2Serial+0x70>
				temp = i - 10;
			}
			else
			{
				usart_TX_char('2');
 1d0:	82 e3       	ldi	r24, 0x32	; 50
 1d2:	0e 94 53 00 	call	0xa6	; 0xa6 <usart_TX_char>
 1d6:	8c ee       	ldi	r24, 0xEC	; 236
 1d8:	8c 0f       	add	r24, r28
				temp = i - 20;
			}
		}
		usart_TX_char(temp+'0');
 1da:	80 5d       	subi	r24, 0xD0	; 208
 1dc:	0e 94 53 00 	call	0xa6	; 0xa6 <usart_TX_char>
		usart_TX_char(' ');
 1e0:	80 e2       	ldi	r24, 0x20	; 32
 1e2:	0e 94 53 00 	call	0xa6	; 0xa6 <usart_TX_char>
		for(int8_t j=0; j<MAXPINS; j++)
 1e6:	d0 e0       	ldi	r29, 0x00	; 0
	usart_TX_string("o:drive G:got E:expects X:match\n");
	usart_TX_string("Pin 0.........................27\n");
	usart_TX_string("Pin 0    5    0    5    0    5 7\n");
	for(int8_t i=0; i<MAXPINS; i++)
	{
		uint32_t mark = 1;
 1e8:	c1 2c       	mov	r12, r1
 1ea:	d1 2c       	mov	r13, r1
 1ec:	76 01       	movw	r14, r12
 1ee:	c3 94       	inc	r12
		}
		usart_TX_char(temp+'0');
		usart_TX_char(' ');
		for(int8_t j=0; j<MAXPINS; j++)
		{
			if(net[i] & mark && sollValue[i] & mark && i==j) usart_TX_char('o');
 1f0:	f8 01       	movw	r30, r16
 1f2:	80 81       	ld	r24, Z
 1f4:	91 81       	ldd	r25, Z+1	; 0x01
 1f6:	a2 81       	ldd	r26, Z+2	; 0x02
 1f8:	b3 81       	ldd	r27, Z+3	; 0x03
 1fa:	8c 21       	and	r24, r12
 1fc:	9d 21       	and	r25, r13
 1fe:	ae 21       	and	r26, r14
 200:	bf 21       	and	r27, r15
 202:	f5 01       	movw	r30, r10
 204:	89 2b       	or	r24, r25
 206:	8a 2b       	or	r24, r26
 208:	8b 2b       	or	r24, r27
 20a:	a1 f0       	breq	.+40     	; 0x234 <showNet2Serial+0xcc>
 20c:	80 81       	ld	r24, Z
 20e:	91 81       	ldd	r25, Z+1	; 0x01
 210:	a2 81       	ldd	r26, Z+2	; 0x02
 212:	b3 81       	ldd	r27, Z+3	; 0x03
 214:	8c 21       	and	r24, r12
 216:	9d 21       	and	r25, r13
 218:	ae 21       	and	r26, r14
 21a:	bf 21       	and	r27, r15
 21c:	89 2b       	or	r24, r25
 21e:	8a 2b       	or	r24, r26
 220:	8b 2b       	or	r24, r27
 222:	31 f0       	breq	.+12     	; 0x230 <showNet2Serial+0xc8>
 224:	dc 13       	cpse	r29, r28
 226:	02 c0       	rjmp	.+4      	; 0x22c <showNet2Serial+0xc4>
 228:	8f e6       	ldi	r24, 0x6F	; 111
 22a:	13 c0       	rjmp	.+38     	; 0x252 <showNet2Serial+0xea>
			else
			{
				if(net[i] & mark && sollValue[i] & mark) usart_TX_char('X');
 22c:	88 e5       	ldi	r24, 0x58	; 88
 22e:	11 c0       	rjmp	.+34     	; 0x252 <showNet2Serial+0xea>
				else
				{
					if(net[i] & mark) usart_TX_char('G');
 230:	87 e4       	ldi	r24, 0x47	; 71
 232:	0f c0       	rjmp	.+30     	; 0x252 <showNet2Serial+0xea>
					else
						{
						if(sollValue[i] & mark) usart_TX_char('E');
 234:	80 81       	ld	r24, Z
 236:	91 81       	ldd	r25, Z+1	; 0x01
 238:	a2 81       	ldd	r26, Z+2	; 0x02
 23a:	b3 81       	ldd	r27, Z+3	; 0x03
 23c:	8c 21       	and	r24, r12
 23e:	9d 21       	and	r25, r13
 240:	ae 21       	and	r26, r14
 242:	bf 21       	and	r27, r15
 244:	89 2b       	or	r24, r25
 246:	8a 2b       	or	r24, r26
 248:	8b 2b       	or	r24, r27
 24a:	11 f0       	breq	.+4      	; 0x250 <showNet2Serial+0xe8>
 24c:	85 e4       	ldi	r24, 0x45	; 69
 24e:	01 c0       	rjmp	.+2      	; 0x252 <showNet2Serial+0xea>
						else usart_TX_char('.');
 250:	8e e2       	ldi	r24, 0x2E	; 46
 252:	0e 94 53 00 	call	0xa6	; 0xa6 <usart_TX_char>
						}
				}
			}
			mark <<= 1;
 256:	cc 0c       	add	r12, r12
 258:	dd 1c       	adc	r13, r13
 25a:	ee 1c       	adc	r14, r14
 25c:	ff 1c       	adc	r15, r15
 25e:	df 5f       	subi	r29, 0xFF	; 255
				temp = i - 20;
			}
		}
		usart_TX_char(temp+'0');
		usart_TX_char(' ');
		for(int8_t j=0; j<MAXPINS; j++)
 260:	dc 31       	cpi	r29, 0x1C	; 28
 262:	31 f6       	brne	.-116    	; 0x1f0 <showNet2Serial+0x88>
						}
				}
			}
			mark <<= 1;
		}
		usart_TX_string("\n");
 264:	80 e6       	ldi	r24, 0x60	; 96
 266:	91 e0       	ldi	r25, 0x01	; 1
 268:	0e 94 57 00 	call	0xae	; 0xae <usart_TX_string>
 26c:	cf 5f       	subi	r28, 0xFF	; 255
 26e:	f4 e0       	ldi	r31, 0x04	; 4
 270:	af 0e       	add	r10, r31
 272:	b1 1c       	adc	r11, r1
 274:	0c 5f       	subi	r16, 0xFC	; 252
 276:	1f 4f       	sbci	r17, 0xFF	; 255
{
	usart_TX_string("\n");
	usart_TX_string("o:drive G:got E:expects X:match\n");
	usart_TX_string("Pin 0.........................27\n");
	usart_TX_string("Pin 0    5    0    5    0    5 7\n");
	for(int8_t i=0; i<MAXPINS; i++)
 278:	cc 31       	cpi	r28, 0x1C	; 28
 27a:	09 f0       	breq	.+2      	; 0x27e <showNet2Serial+0x116>
 27c:	98 cf       	rjmp	.-208    	; 0x1ae <showNet2Serial+0x46>
			}
			mark <<= 1;
		}
		usart_TX_string("\n");
	}
	usart_TX_string("END OF NET\n");
 27e:	85 e3       	ldi	r24, 0x35	; 53
 280:	91 e0       	ldi	r25, 0x01	; 1
}
 282:	df 91       	pop	r29
 284:	cf 91       	pop	r28
 286:	1f 91       	pop	r17
 288:	0f 91       	pop	r16
 28a:	ff 90       	pop	r15
 28c:	ef 90       	pop	r14
 28e:	df 90       	pop	r13
 290:	cf 90       	pop	r12
 292:	bf 90       	pop	r11
 294:	af 90       	pop	r10
			}
			mark <<= 1;
		}
		usart_TX_string("\n");
	}
	usart_TX_string("END OF NET\n");
 296:	0c 94 57 00 	jmp	0xae	; 0xae <usart_TX_string>

0000029a <init>:
}

void init()
{
	SET4BUTTONS;
 29a:	81 b3       	in	r24, 0x11	; 17
 29c:	83 7f       	andi	r24, 0xF3	; 243
 29e:	81 bb       	out	0x11, r24	; 17
 2a0:	82 b3       	in	r24, 0x12	; 18
 2a2:	8c 60       	ori	r24, 0x0C	; 12
 2a4:	82 bb       	out	0x12, r24	; 18
	SET4LED;
 2a6:	88 9a       	sbi	0x11, 0	; 17
 2a8:	08 95       	ret

000002aa <done>:
}

void done()
{
	usart_TX_string("DONE \n");
 2aa:	81 e4       	ldi	r24, 0x41	; 65
 2ac:	91 e0       	ldi	r25, 0x01	; 1
 2ae:	0e 94 57 00 	call	0xae	; 0xae <usart_TX_string>
	SET4SOUNDS;
 2b2:	81 b3       	in	r24, 0x11	; 17
 2b4:	8c 60       	ori	r24, 0x0C	; 12
 2b6:	81 bb       	out	0x11, r24	; 17
 2b8:	92 9a       	sbi	0x12, 2	; 18
 2ba:	93 98       	cbi	0x12, 3	; 18
 2bc:	80 ea       	ldi	r24, 0xA0	; 160
 2be:	9f e0       	ldi	r25, 0x0F	; 15
	for(uint16_t i = 0; i < 4000; i++)
	{
		PORTD ^= (SOUNDPIN1 | SOUNDPIN2);
 2c0:	3c e0       	ldi	r19, 0x0C	; 12
 2c2:	22 b3       	in	r18, 0x12	; 18
 2c4:	23 27       	eor	r18, r19
 2c6:	22 bb       	out	0x12, r18	; 18
	#else
		//round up by default
		__ticks_dc = (uint32_t)(ceil(fabs(__tmp)));
	#endif

	__builtin_avr_delay_cycles(__ticks_dc);
 2c8:	ef e8       	ldi	r30, 0x8F	; 143
 2ca:	f1 e0       	ldi	r31, 0x01	; 1
 2cc:	31 97       	sbiw	r30, 0x01	; 1
 2ce:	f1 f7       	brne	.-4      	; 0x2cc <done+0x22>
 2d0:	00 c0       	rjmp	.+0      	; 0x2d2 <done+0x28>
 2d2:	00 00       	nop
 2d4:	01 97       	sbiw	r24, 0x01	; 1

void done()
{
	usart_TX_string("DONE \n");
	SET4SOUNDS;
	for(uint16_t i = 0; i < 4000; i++)
 2d6:	a9 f7       	brne	.-22     	; 0x2c2 <done+0x18>
 2d8:	88 ec       	ldi	r24, 0xC8	; 200
		PORTD ^= (SOUNDPIN1 | SOUNDPIN2);
		_delay_us(HALF2WAVE_US);
	}
	for(uint8_t i = 0; i < 200; i++)
	{
		PORTD ^= (SOUNDPIN1 | SOUNDPIN2);
 2da:	2c e0       	ldi	r18, 0x0C	; 12
 2dc:	92 b3       	in	r25, 0x12	; 18
 2de:	92 27       	eor	r25, r18
 2e0:	92 bb       	out	0x12, r25	; 18
 2e2:	e7 e0       	ldi	r30, 0x07	; 7
 2e4:	f1 e0       	ldi	r31, 0x01	; 1
 2e6:	31 97       	sbiw	r30, 0x01	; 1
 2e8:	f1 f7       	brne	.-4      	; 0x2e6 <done+0x3c>
 2ea:	00 c0       	rjmp	.+0      	; 0x2ec <done+0x42>
 2ec:	00 00       	nop
 2ee:	81 50       	subi	r24, 0x01	; 1
	for(uint16_t i = 0; i < 4000; i++)
	{
		PORTD ^= (SOUNDPIN1 | SOUNDPIN2);
		_delay_us(HALF2WAVE_US);
	}
	for(uint8_t i = 0; i < 200; i++)
 2f0:	a9 f7       	brne	.-22     	; 0x2dc <done+0x32>
	{
		PORTD ^= (SOUNDPIN1 | SOUNDPIN2);
		_delay_us(HALF1WAVE_US);
	}
	SET4BUTTONS;
 2f2:	81 b3       	in	r24, 0x11	; 17
 2f4:	83 7f       	andi	r24, 0xF3	; 243
 2f6:	81 bb       	out	0x11, r24	; 17
 2f8:	82 b3       	in	r24, 0x12	; 18
 2fa:	8c 60       	ori	r24, 0x0C	; 12
 2fc:	82 bb       	out	0x12, r24	; 18
 2fe:	08 95       	ret

00000300 <pass>:
}

void pass()
{
	usart_TX_string("PASS \n");
 300:	88 e4       	ldi	r24, 0x48	; 72
 302:	91 e0       	ldi	r25, 0x01	; 1
 304:	0e 94 57 00 	call	0xae	; 0xae <usart_TX_string>
	SET4SOUNDS;
 308:	81 b3       	in	r24, 0x11	; 17
 30a:	8c 60       	ori	r24, 0x0C	; 12
 30c:	81 bb       	out	0x11, r24	; 17
 30e:	92 9a       	sbi	0x12, 2	; 18
 310:	93 98       	cbi	0x12, 3	; 18
 312:	88 ee       	ldi	r24, 0xE8	; 232
 314:	93 e0       	ldi	r25, 0x03	; 3
	for(uint16_t i = 0; i < 1000; i++)
	{
		PORTD ^= (SOUNDPIN1 | SOUNDPIN2);
 316:	3c e0       	ldi	r19, 0x0C	; 12
 318:	22 b3       	in	r18, 0x12	; 18
 31a:	23 27       	eor	r18, r19
 31c:	22 bb       	out	0x12, r18	; 18
 31e:	ef e8       	ldi	r30, 0x8F	; 143
 320:	f1 e0       	ldi	r31, 0x01	; 1
 322:	31 97       	sbiw	r30, 0x01	; 1
 324:	f1 f7       	brne	.-4      	; 0x322 <pass+0x22>
 326:	00 c0       	rjmp	.+0      	; 0x328 <pass+0x28>
 328:	00 00       	nop
 32a:	01 97       	sbiw	r24, 0x01	; 1

void pass()
{
	usart_TX_string("PASS \n");
	SET4SOUNDS;
	for(uint16_t i = 0; i < 1000; i++)
 32c:	a9 f7       	brne	.-22     	; 0x318 <pass+0x18>
 32e:	88 ec       	ldi	r24, 0xC8	; 200
		PORTD ^= (SOUNDPIN1 | SOUNDPIN2);
		_delay_us(HALF2WAVE_US);
	}
	for(uint8_t i = 0; i < 200; i++)
	{
		PORTD ^= (SOUNDPIN1 | SOUNDPIN2);
 330:	2c e0       	ldi	r18, 0x0C	; 12
 332:	92 b3       	in	r25, 0x12	; 18
 334:	92 27       	eor	r25, r18
 336:	92 bb       	out	0x12, r25	; 18
 338:	e7 e0       	ldi	r30, 0x07	; 7
 33a:	f1 e0       	ldi	r31, 0x01	; 1
 33c:	31 97       	sbiw	r30, 0x01	; 1
 33e:	f1 f7       	brne	.-4      	; 0x33c <pass+0x3c>
 340:	00 c0       	rjmp	.+0      	; 0x342 <pass+0x42>
 342:	00 00       	nop
 344:	81 50       	subi	r24, 0x01	; 1
	for(uint16_t i = 0; i < 1000; i++)
	{
		PORTD ^= (SOUNDPIN1 | SOUNDPIN2);
		_delay_us(HALF2WAVE_US);
	}
	for(uint8_t i = 0; i < 200; i++)
 346:	a9 f7       	brne	.-22     	; 0x332 <pass+0x32>
	{
		PORTD ^= (SOUNDPIN1 | SOUNDPIN2);
		_delay_us(HALF1WAVE_US);
	}
	SET4BUTTONS;
 348:	81 b3       	in	r24, 0x11	; 17
 34a:	83 7f       	andi	r24, 0xF3	; 243
 34c:	81 bb       	out	0x11, r24	; 17
 34e:	82 b3       	in	r24, 0x12	; 18
 350:	8c 60       	ori	r24, 0x0C	; 12
 352:	82 bb       	out	0x12, r24	; 18
 354:	08 95       	ret

00000356 <fail>:
}

void fail()
{
	usart_TX_string("FAIL \n");
 356:	8f e4       	ldi	r24, 0x4F	; 79
 358:	91 e0       	ldi	r25, 0x01	; 1
 35a:	0e 94 57 00 	call	0xae	; 0xae <usart_TX_string>
	SET4SOUNDS;
 35e:	81 b3       	in	r24, 0x11	; 17
 360:	8c 60       	ori	r24, 0x0C	; 12
 362:	81 bb       	out	0x11, r24	; 17
 364:	92 9a       	sbi	0x12, 2	; 18
 366:	93 98       	cbi	0x12, 3	; 18
 368:	90 e1       	ldi	r25, 0x10	; 16
	for(uint8_t k = 0; k < 16; k++)
	{
		for(uint8_t i = 0; i < 100; i++)
		{
			PORTD ^= (SOUNDPIN1 | SOUNDPIN2);
 36a:	3c e0       	ldi	r19, 0x0C	; 12
	}
	SET4BUTTONS;
}

void fail()
{
 36c:	84 e6       	ldi	r24, 0x64	; 100
	SET4SOUNDS;
	for(uint8_t k = 0; k < 16; k++)
	{
		for(uint8_t i = 0; i < 100; i++)
		{
			PORTD ^= (SOUNDPIN1 | SOUNDPIN2);
 36e:	22 b3       	in	r18, 0x12	; 18
 370:	23 27       	eor	r18, r19
 372:	22 bb       	out	0x12, r18	; 18
 374:	e7 e0       	ldi	r30, 0x07	; 7
 376:	f1 e0       	ldi	r31, 0x01	; 1
 378:	31 97       	sbiw	r30, 0x01	; 1
 37a:	f1 f7       	brne	.-4      	; 0x378 <fail+0x22>
 37c:	00 c0       	rjmp	.+0      	; 0x37e <fail+0x28>
 37e:	00 00       	nop
 380:	81 50       	subi	r24, 0x01	; 1
{
	usart_TX_string("FAIL \n");
	SET4SOUNDS;
	for(uint8_t k = 0; k < 16; k++)
	{
		for(uint8_t i = 0; i < 100; i++)
 382:	a9 f7       	brne	.-22     	; 0x36e <fail+0x18>
	#else
		//round up by default
		__ticks_dc = (uint32_t)(ceil(fabs(__tmp)));
	#endif

	__builtin_avr_delay_cycles(__ticks_dc);
 384:	ff ef       	ldi	r31, 0xFF	; 255
 386:	23 ef       	ldi	r18, 0xF3	; 243
 388:	41 e0       	ldi	r20, 0x01	; 1
 38a:	f1 50       	subi	r31, 0x01	; 1
 38c:	20 40       	sbci	r18, 0x00	; 0
 38e:	40 40       	sbci	r20, 0x00	; 0
 390:	e1 f7       	brne	.-8      	; 0x38a <fail+0x34>
 392:	00 c0       	rjmp	.+0      	; 0x394 <fail+0x3e>
 394:	00 00       	nop
 396:	91 50       	subi	r25, 0x01	; 1

void fail()
{
	usart_TX_string("FAIL \n");
	SET4SOUNDS;
	for(uint8_t k = 0; k < 16; k++)
 398:	49 f7       	brne	.-46     	; 0x36c <fail+0x16>
			PORTD ^= (SOUNDPIN1 | SOUNDPIN2);
			_delay_us(HALF1WAVE_US);
		}
		_delay_ms(40);
	}
	SET4BUTTONS;
 39a:	81 b3       	in	r24, 0x11	; 17
 39c:	83 7f       	andi	r24, 0xF3	; 243
 39e:	81 bb       	out	0x11, r24	; 17
 3a0:	82 b3       	in	r24, 0x12	; 18
 3a2:	8c 60       	ori	r24, 0x0C	; 12
 3a4:	82 bb       	out	0x12, r24	; 18
 3a6:	08 95       	ret

000003a8 <error>:
}

void error()
{
	usart_TX_string("ERROR \n");
 3a8:	86 e5       	ldi	r24, 0x56	; 86
 3aa:	91 e0       	ldi	r25, 0x01	; 1
 3ac:	0e 94 57 00 	call	0xae	; 0xae <usart_TX_string>
	SET4SOUNDS;
 3b0:	81 b3       	in	r24, 0x11	; 17
 3b2:	8c 60       	ori	r24, 0x0C	; 12
 3b4:	81 bb       	out	0x11, r24	; 17
 3b6:	92 9a       	sbi	0x12, 2	; 18
 3b8:	93 98       	cbi	0x12, 3	; 18
 3ba:	88 ee       	ldi	r24, 0xE8	; 232
 3bc:	93 e0       	ldi	r25, 0x03	; 3
	for(uint16_t i = 0; i < 1000; i++)
	{
		PORTD ^= (SOUNDPIN1 | SOUNDPIN2);
 3be:	3c e0       	ldi	r19, 0x0C	; 12
 3c0:	22 b3       	in	r18, 0x12	; 18
 3c2:	23 27       	eor	r18, r19
 3c4:	22 bb       	out	0x12, r18	; 18
	#else
		//round up by default
		__ticks_dc = (uint32_t)(ceil(fabs(__tmp)));
	#endif

	__builtin_avr_delay_cycles(__ticks_dc);
 3c6:	ef e8       	ldi	r30, 0x8F	; 143
 3c8:	f1 e0       	ldi	r31, 0x01	; 1
 3ca:	31 97       	sbiw	r30, 0x01	; 1
 3cc:	f1 f7       	brne	.-4      	; 0x3ca <error+0x22>
 3ce:	00 c0       	rjmp	.+0      	; 0x3d0 <error+0x28>
 3d0:	00 00       	nop
 3d2:	01 97       	sbiw	r24, 0x01	; 1

void error()
{
	usart_TX_string("ERROR \n");
	SET4SOUNDS;
	for(uint16_t i = 0; i < 1000; i++)
 3d4:	a9 f7       	brne	.-22     	; 0x3c0 <error+0x18>
	{
		PORTD ^= (SOUNDPIN1 | SOUNDPIN2);
		_delay_us(HALF2WAVE_US);
	}
	SET4BUTTONS;	
 3d6:	81 b3       	in	r24, 0x11	; 17
 3d8:	83 7f       	andi	r24, 0xF3	; 243
 3da:	81 bb       	out	0x11, r24	; 17
 3dc:	82 b3       	in	r24, 0x12	; 18
 3de:	8c 60       	ori	r24, 0x0C	; 12
 3e0:	82 bb       	out	0x12, r24	; 18
 3e2:	08 95       	ret

000003e4 <writeByte2EEPROM>:
}

void writeByte2EEPROM(uint16_t adress, uint8_t data)
{
	while(EECR & (1<<EEWE));//wait4completion of previous write	
 3e4:	e1 99       	sbic	0x1c, 1	; 28
 3e6:	fe cf       	rjmp	.-4      	; 0x3e4 <writeByte2EEPROM>
	EEAR = adress;
 3e8:	9f bb       	out	0x1f, r25	; 31
 3ea:	8e bb       	out	0x1e, r24	; 30
	EEDR = data;
 3ec:	6d bb       	out	0x1d, r22	; 29
	EECR |= (1<<EEMWE);
 3ee:	e2 9a       	sbi	0x1c, 2	; 28
	EECR |= (1<<EEWE);//start EEPROM write
 3f0:	e1 9a       	sbi	0x1c, 1	; 28
 3f2:	08 95       	ret

000003f4 <readEEPROM2Byte>:
}

uint8_t readEEPROM2Byte(uint16_t adress)
{
	while(EECR & (1<<EEWE));//wait4completion of previous write	
 3f4:	e1 99       	sbic	0x1c, 1	; 28
 3f6:	fe cf       	rjmp	.-4      	; 0x3f4 <readEEPROM2Byte>
	EEAR = adress;
 3f8:	9f bb       	out	0x1f, r25	; 31
 3fa:	8e bb       	out	0x1e, r24	; 30
	EECR |= (1<<EERE);
 3fc:	e0 9a       	sbi	0x1c, 0	; 28
	return EEDR;//read EEPROM
 3fe:	8d b3       	in	r24, 0x1d	; 29
}	
 400:	08 95       	ret

00000402 <writeEEPROM>:

void writeEEPROM()
{
 402:	cf 92       	push	r12
 404:	df 92       	push	r13
 406:	ef 92       	push	r14
 408:	ff 92       	push	r15
 40a:	0f 93       	push	r16
 40c:	1f 93       	push	r17
 40e:	cf 93       	push	r28
 410:	df 93       	push	r29
 412:	90 e6       	ldi	r25, 0x60	; 96
 414:	c9 2e       	mov	r12, r25
 416:	90 e0       	ldi	r25, 0x00	; 0
 418:	d9 2e       	mov	r13, r25
	uint16_t adress = 0;
 41a:	00 e0       	ldi	r16, 0x00	; 0
 41c:	10 e0       	ldi	r17, 0x00	; 0
	EECR |= (1<<EERE);
	return EEDR;//read EEPROM
}	

void writeEEPROM()
{
 41e:	78 01       	movw	r14, r16
 420:	c3 e0       	ldi	r28, 0x03	; 3
 422:	d0 e0       	ldi	r29, 0x00	; 0
	{
		for(uint8_t j = 0; j < 4; j++)
		{
			//for MSB left (3-j)<<3=24,16,8,0 and cast to uint8_t
			uint8_t temp = (uint8_t)(sollValue[i] >> ((3-j)<<3) & 0xFF);
			writeByte2EEPROM(adress, temp);
 424:	9e 01       	movw	r18, r28
 426:	83 e0       	ldi	r24, 0x03	; 3
 428:	22 0f       	add	r18, r18
 42a:	33 1f       	adc	r19, r19
 42c:	8a 95       	dec	r24
 42e:	e1 f7       	brne	.-8      	; 0x428 <writeEEPROM+0x26>
 430:	f6 01       	movw	r30, r12
 432:	80 81       	ld	r24, Z
 434:	91 81       	ldd	r25, Z+1	; 0x01
 436:	a2 81       	ldd	r26, Z+2	; 0x02
 438:	b3 81       	ldd	r27, Z+3	; 0x03
 43a:	bc 01       	movw	r22, r24
 43c:	cd 01       	movw	r24, r26
 43e:	04 c0       	rjmp	.+8      	; 0x448 <writeEEPROM+0x46>
 440:	96 95       	lsr	r25
 442:	87 95       	ror	r24
 444:	77 95       	ror	r23
 446:	67 95       	ror	r22
 448:	2a 95       	dec	r18
 44a:	d2 f7       	brpl	.-12     	; 0x440 <writeEEPROM+0x3e>
 44c:	c7 01       	movw	r24, r14
 44e:	0e 94 f2 01 	call	0x3e4	; 0x3e4 <writeByte2EEPROM>
			adress ++;
 452:	ff ef       	ldi	r31, 0xFF	; 255
 454:	ef 1a       	sub	r14, r31
 456:	ff 0a       	sbc	r15, r31
 458:	21 97       	sbiw	r28, 0x01	; 1
 45a:	20 f7       	brcc	.-56     	; 0x424 <writeEEPROM+0x22>
 45c:	0c 5f       	subi	r16, 0xFC	; 252
 45e:	1f 4f       	sbci	r17, 0xFF	; 255
 460:	e4 e0       	ldi	r30, 0x04	; 4
 462:	ce 0e       	add	r12, r30
 464:	d1 1c       	adc	r13, r1
}	

void writeEEPROM()
{
	uint16_t adress = 0;
	for(uint8_t i = 0; i < MAXPINS; i++)
 466:	00 37       	cpi	r16, 0x70	; 112
 468:	11 05       	cpc	r17, r1
 46a:	c9 f6       	brne	.-78     	; 0x41e <writeEEPROM+0x1c>
			uint8_t temp = (uint8_t)(sollValue[i] >> ((3-j)<<3) & 0xFF);
			writeByte2EEPROM(adress, temp);
			adress ++;
		}
	}
}
 46c:	df 91       	pop	r29
 46e:	cf 91       	pop	r28
 470:	1f 91       	pop	r17
 472:	0f 91       	pop	r16
 474:	ff 90       	pop	r15
 476:	ef 90       	pop	r14
 478:	df 90       	pop	r13
 47a:	cf 90       	pop	r12
 47c:	08 95       	ret

0000047e <readEEPROM>:

void readEEPROM()
{
 47e:	8f 92       	push	r8
 480:	9f 92       	push	r9
 482:	af 92       	push	r10
 484:	bf 92       	push	r11
 486:	cf 92       	push	r12
 488:	df 92       	push	r13
 48a:	ef 92       	push	r14
 48c:	ff 92       	push	r15
 48e:	0f 93       	push	r16
 490:	1f 93       	push	r17
 492:	cf 93       	push	r28
 494:	df 93       	push	r29
 496:	50 e6       	ldi	r21, 0x60	; 96
 498:	c5 2e       	mov	r12, r21
 49a:	50 e0       	ldi	r21, 0x00	; 0
 49c:	d5 2e       	mov	r13, r21
	uint16_t adress = 0;
 49e:	00 e0       	ldi	r16, 0x00	; 0
 4a0:	10 e0       	ldi	r17, 0x00	; 0
		}
	}
}

void readEEPROM()
{
 4a2:	78 01       	movw	r14, r16
 4a4:	c3 e0       	ldi	r28, 0x03	; 3
 4a6:	d0 e0       	ldi	r29, 0x00	; 0
 4a8:	81 2c       	mov	r8, r1
 4aa:	91 2c       	mov	r9, r1
 4ac:	54 01       	movw	r10, r8
	{
		uint32_t temp = 0;
		for(uint8_t j = 0; j < 4; j++)
		{
			//for MSB left (3-j)<<3=24,16,8,0 and cast to uint32_t
			temp += (uint32_t)readEEPROM2Byte(adress) << ((3-j)<<3);
 4ae:	c7 01       	movw	r24, r14
 4b0:	0e 94 fa 01 	call	0x3f4	; 0x3f4 <readEEPROM2Byte>
 4b4:	90 e0       	ldi	r25, 0x00	; 0
 4b6:	a0 e0       	ldi	r26, 0x00	; 0
 4b8:	b0 e0       	ldi	r27, 0x00	; 0
 4ba:	9e 01       	movw	r18, r28
 4bc:	43 e0       	ldi	r20, 0x03	; 3
 4be:	22 0f       	add	r18, r18
 4c0:	33 1f       	adc	r19, r19
 4c2:	4a 95       	dec	r20
 4c4:	e1 f7       	brne	.-8      	; 0x4be <readEEPROM+0x40>
 4c6:	04 c0       	rjmp	.+8      	; 0x4d0 <readEEPROM+0x52>
 4c8:	88 0f       	add	r24, r24
 4ca:	99 1f       	adc	r25, r25
 4cc:	aa 1f       	adc	r26, r26
 4ce:	bb 1f       	adc	r27, r27
 4d0:	2a 95       	dec	r18
 4d2:	d2 f7       	brpl	.-12     	; 0x4c8 <readEEPROM+0x4a>
 4d4:	88 0e       	add	r8, r24
 4d6:	99 1e       	adc	r9, r25
 4d8:	aa 1e       	adc	r10, r26
 4da:	bb 1e       	adc	r11, r27
			adress ++;
 4dc:	8f ef       	ldi	r24, 0xFF	; 255
 4de:	e8 1a       	sub	r14, r24
 4e0:	f8 0a       	sbc	r15, r24
 4e2:	21 97       	sbiw	r28, 0x01	; 1
 4e4:	20 f7       	brcc	.-56     	; 0x4ae <readEEPROM+0x30>
 4e6:	0c 5f       	subi	r16, 0xFC	; 252
 4e8:	1f 4f       	sbci	r17, 0xFF	; 255
		}
		sollValue[i] = temp;
 4ea:	f6 01       	movw	r30, r12
 4ec:	81 92       	st	Z+, r8
 4ee:	91 92       	st	Z+, r9
 4f0:	a1 92       	st	Z+, r10
 4f2:	b1 92       	st	Z+, r11
 4f4:	6f 01       	movw	r12, r30
}

void readEEPROM()
{
	uint16_t adress = 0;
	for(uint8_t i = 0; i < MAXPINS; i++)
 4f6:	00 37       	cpi	r16, 0x70	; 112
 4f8:	11 05       	cpc	r17, r1
 4fa:	99 f6       	brne	.-90     	; 0x4a2 <readEEPROM+0x24>
			temp += (uint32_t)readEEPROM2Byte(adress) << ((3-j)<<3);
			adress ++;
		}
		sollValue[i] = temp;
	}
}
 4fc:	df 91       	pop	r29
 4fe:	cf 91       	pop	r28
 500:	1f 91       	pop	r17
 502:	0f 91       	pop	r16
 504:	ff 90       	pop	r15
 506:	ef 90       	pop	r14
 508:	df 90       	pop	r13
 50a:	cf 90       	pop	r12
 50c:	bf 90       	pop	r11
 50e:	af 90       	pop	r10
 510:	9f 90       	pop	r9
 512:	8f 90       	pop	r8
 514:	08 95       	ret

00000516 <clearAllPins>:

void clearAllPins(){
	DDRA   =  0;
 516:	1a ba       	out	0x1a, r1	; 26
	PORTA  =  0xFF;
 518:	8f ef       	ldi	r24, 0xFF	; 255
 51a:	8b bb       	out	0x1b, r24	; 27
	DDRB   =  0;
 51c:	17 ba       	out	0x17, r1	; 23
	PORTB  =  0xFF;
 51e:	88 bb       	out	0x18, r24	; 24
	DDRC   =  0;
 520:	14 ba       	out	0x14, r1	; 20
	PORTC  =  0xFF;
 522:	85 bb       	out	0x15, r24	; 21
	DDRD  &=  0x0F; // unteres Nibbel für UI
 524:	81 b3       	in	r24, 0x11	; 17
 526:	8f 70       	andi	r24, 0x0F	; 15
 528:	81 bb       	out	0x11, r24	; 17
	PORTD |=  0xF0; // unteres Nibbel für UI
 52a:	82 b3       	in	r24, 0x12	; 18
 52c:	80 6f       	ori	r24, 0xF0	; 240
 52e:	82 bb       	out	0x12, r24	; 18
 530:	08 95       	ret

00000532 <setPin>:
}
	
void setPin(uint8_t sendPin)
{
	if(sendPin < 8)
 532:	88 30       	cpi	r24, 0x08	; 8
 534:	90 f4       	brcc	.+36     	; 0x55a <setPin+0x28>
	{
		DDRA  |=   (1<<sendPin);
 536:	4a b3       	in	r20, 0x1a	; 26
 538:	21 e0       	ldi	r18, 0x01	; 1
 53a:	30 e0       	ldi	r19, 0x00	; 0
 53c:	b9 01       	movw	r22, r18
 53e:	02 c0       	rjmp	.+4      	; 0x544 <setPin+0x12>
 540:	66 0f       	add	r22, r22
 542:	77 1f       	adc	r23, r23
 544:	8a 95       	dec	r24
 546:	e2 f7       	brpl	.-8      	; 0x540 <setPin+0xe>
 548:	cb 01       	movw	r24, r22
 54a:	94 2f       	mov	r25, r20
 54c:	98 2b       	or	r25, r24
 54e:	9a bb       	out	0x1a, r25	; 26
		PORTA &=  ~(1<<sendPin);
 550:	9b b3       	in	r25, 0x1b	; 27
 552:	80 95       	com	r24
 554:	89 23       	and	r24, r25
 556:	8b bb       	out	0x1b, r24	; 27
 558:	08 95       	ret
	}
	else if(sendPin < 16)
 55a:	80 31       	cpi	r24, 0x10	; 16
 55c:	98 f4       	brcc	.+38     	; 0x584 <setPin+0x52>
	{
		DDRB  |=   (1<<(sendPin-8));
 55e:	47 b3       	in	r20, 0x17	; 23
 560:	88 50       	subi	r24, 0x08	; 8
 562:	21 e0       	ldi	r18, 0x01	; 1
 564:	30 e0       	ldi	r19, 0x00	; 0
 566:	b9 01       	movw	r22, r18
 568:	02 c0       	rjmp	.+4      	; 0x56e <setPin+0x3c>
 56a:	66 0f       	add	r22, r22
 56c:	77 1f       	adc	r23, r23
 56e:	8a 95       	dec	r24
 570:	e2 f7       	brpl	.-8      	; 0x56a <setPin+0x38>
 572:	cb 01       	movw	r24, r22
 574:	94 2f       	mov	r25, r20
 576:	98 2b       	or	r25, r24
 578:	97 bb       	out	0x17, r25	; 23
		PORTB &=  ~(1<<(sendPin-8));
 57a:	98 b3       	in	r25, 0x18	; 24
 57c:	80 95       	com	r24
 57e:	89 23       	and	r24, r25
 580:	88 bb       	out	0x18, r24	; 24
 582:	08 95       	ret
	}
	else if(sendPin < 24)
 584:	88 31       	cpi	r24, 0x18	; 24
 586:	98 f4       	brcc	.+38     	; 0x5ae <setPin+0x7c>
	{
		DDRC  |=  (128>>(sendPin-16));// geändert von DDRC  |=   (1<<(sendPin-16)); 
 588:	44 b3       	in	r20, 0x14	; 20
 58a:	80 51       	subi	r24, 0x10	; 16
 58c:	20 e8       	ldi	r18, 0x80	; 128
 58e:	30 e0       	ldi	r19, 0x00	; 0
 590:	b9 01       	movw	r22, r18
 592:	02 c0       	rjmp	.+4      	; 0x598 <setPin+0x66>
 594:	75 95       	asr	r23
 596:	67 95       	ror	r22
 598:	8a 95       	dec	r24
 59a:	e2 f7       	brpl	.-8      	; 0x594 <setPin+0x62>
 59c:	cb 01       	movw	r24, r22
 59e:	94 2f       	mov	r25, r20
 5a0:	98 2b       	or	r25, r24
 5a2:	94 bb       	out	0x14, r25	; 20
		PORTC &= ~(128>>(sendPin-16));// geändert von PORTC &=  ~(1<<(sendPin-16)); 
 5a4:	95 b3       	in	r25, 0x15	; 21
 5a6:	80 95       	com	r24
 5a8:	89 23       	and	r24, r25
 5aa:	85 bb       	out	0x15, r24	; 21
 5ac:	08 95       	ret
	}
	else if(sendPin < MAXPINS)
 5ae:	8c 31       	cpi	r24, 0x1C	; 28
 5b0:	98 f4       	brcc	.+38     	; 0x5d8 <setPin+0xa6>
	{
		DDRD  |=   (1<<(sendPin-20));
 5b2:	41 b3       	in	r20, 0x11	; 17
 5b4:	84 51       	subi	r24, 0x14	; 20
 5b6:	21 e0       	ldi	r18, 0x01	; 1
 5b8:	30 e0       	ldi	r19, 0x00	; 0
 5ba:	b9 01       	movw	r22, r18
 5bc:	02 c0       	rjmp	.+4      	; 0x5c2 <setPin+0x90>
 5be:	66 0f       	add	r22, r22
 5c0:	77 1f       	adc	r23, r23
 5c2:	8a 95       	dec	r24
 5c4:	e2 f7       	brpl	.-8      	; 0x5be <setPin+0x8c>
 5c6:	cb 01       	movw	r24, r22
 5c8:	94 2f       	mov	r25, r20
 5ca:	98 2b       	or	r25, r24
 5cc:	91 bb       	out	0x11, r25	; 17
		PORTD &=  ~(1<<(sendPin-20));
 5ce:	92 b3       	in	r25, 0x12	; 18
 5d0:	80 95       	com	r24
 5d2:	89 23       	and	r24, r25
 5d4:	82 bb       	out	0x12, r24	; 18
 5d6:	08 95       	ret
	}
	else error();
 5d8:	0c 94 d4 01 	jmp	0x3a8	; 0x3a8 <error>

000005dc <getPins>:
} 

uint32_t getPins()
{
 5dc:	0f 93       	push	r16
 5de:	1f 93       	push	r17
	uint8_t    a = ~PINA;
 5e0:	29 b3       	in	r18, 0x19	; 25
	uint16_t   b = ~PINB;
 5e2:	e6 b3       	in	r30, 0x16	; 22
	//uint32_t c = ~PINC; // geändert siehe unten und https://www.mikrocontroller.net/topic/64608?goto=new#new
	uint8_t  c_t = ~PINC;
 5e4:	93 b3       	in	r25, 0x13	; 19
 5e6:	90 95       	com	r25
	//Reihenfolge der Bits vertauschen
	c_t = ((c_t & 0xF0)>>4 | (c_t & 0x0F)<<4);
 5e8:	92 95       	swap	r25
	c_t = ((c_t & 0xCC)>>2 | (c_t & 0x33)<<2);
 5ea:	89 2f       	mov	r24, r25
 5ec:	8c 7c       	andi	r24, 0xCC	; 204
 5ee:	38 2f       	mov	r19, r24
 5f0:	36 95       	lsr	r19
 5f2:	36 95       	lsr	r19
 5f4:	93 73       	andi	r25, 0x33	; 51
 5f6:	04 e0       	ldi	r16, 0x04	; 4
 5f8:	90 9f       	mul	r25, r16
 5fa:	c0 01       	movw	r24, r0
 5fc:	11 24       	eor	r1, r1
 5fe:	83 2b       	or	r24, r19
	c_t = ((c_t & 0xAA)>>1 | (c_t & 0x55)<<1);
 600:	68 2f       	mov	r22, r24
 602:	6a 7a       	andi	r22, 0xAA	; 170
 604:	66 95       	lsr	r22
 606:	85 75       	andi	r24, 0x55	; 85
 608:	88 0f       	add	r24, r24
 60a:	86 2b       	or	r24, r22
	uint32_t   c = c_t;
	uint32_t   d = (~PIND & 0xF0); // überspringe unteres Nibbel für UI
 60c:	40 b3       	in	r20, 0x10	; 16
	return((d<<20) + (c<<16) + (b<<8) + a);	
 60e:	50 e0       	ldi	r21, 0x00	; 0
 610:	40 95       	com	r20
 612:	50 95       	com	r21
 614:	40 7f       	andi	r20, 0xF0	; 240
 616:	55 27       	eor	r21, r21
 618:	05 2e       	mov	r0, r21
 61a:	00 0c       	add	r0, r0
 61c:	66 0b       	sbc	r22, r22
 61e:	77 0b       	sbc	r23, r23
 620:	94 e1       	ldi	r25, 0x14	; 20
 622:	44 0f       	add	r20, r20
 624:	55 1f       	adc	r21, r21
 626:	66 1f       	adc	r22, r22
 628:	77 1f       	adc	r23, r23
 62a:	9a 95       	dec	r25
 62c:	d1 f7       	brne	.-12     	; 0x622 <getPins+0x46>
 62e:	f0 e0       	ldi	r31, 0x00	; 0
 630:	e0 95       	com	r30
 632:	f0 95       	com	r31
 634:	fe 2f       	mov	r31, r30
 636:	ee 27       	eor	r30, r30
 638:	4e 0f       	add	r20, r30
 63a:	5f 1f       	adc	r21, r31
 63c:	61 1d       	adc	r22, r1
 63e:	71 1d       	adc	r23, r1
 640:	20 95       	com	r18
 642:	42 0f       	add	r20, r18
 644:	51 1d       	adc	r21, r1
 646:	61 1d       	adc	r22, r1
 648:	71 1d       	adc	r23, r1
 64a:	90 e0       	ldi	r25, 0x00	; 0
 64c:	a0 e0       	ldi	r26, 0x00	; 0
 64e:	b0 e0       	ldi	r27, 0x00	; 0
 650:	dc 01       	movw	r26, r24
 652:	99 27       	eor	r25, r25
 654:	88 27       	eor	r24, r24
 656:	8a 01       	movw	r16, r20
 658:	9b 01       	movw	r18, r22
 65a:	08 0f       	add	r16, r24
 65c:	19 1f       	adc	r17, r25
 65e:	2a 1f       	adc	r18, r26
 660:	3b 1f       	adc	r19, r27
 662:	c9 01       	movw	r24, r18
 664:	b8 01       	movw	r22, r16
}
 666:	1f 91       	pop	r17
 668:	0f 91       	pop	r16
 66a:	08 95       	ret

0000066c <getErrors>:

uint8_t getErrors()
{
 66c:	0f 93       	push	r16
 66e:	1f 93       	push	r17
 670:	ec ef       	ldi	r30, 0xFC	; 252
 672:	f2 e0       	ldi	r31, 0x02	; 2
 674:	a0 e6       	ldi	r26, 0x60	; 96
 676:	b0 e0       	ldi	r27, 0x00	; 0
	uint8_t errors = 0;
 678:	80 e0       	ldi	r24, 0x00	; 0
	for(uint8_t i = 0; i < MAXPINS; i++)
	{								
		errors += istValue[i] !=  sollValue[i];
 67a:	01 91       	ld	r16, Z+
 67c:	11 91       	ld	r17, Z+
 67e:	21 91       	ld	r18, Z+
 680:	31 91       	ld	r19, Z+
 682:	4d 91       	ld	r20, X+
 684:	5d 91       	ld	r21, X+
 686:	6d 91       	ld	r22, X+
 688:	7d 91       	ld	r23, X+
 68a:	91 e0       	ldi	r25, 0x01	; 1
 68c:	04 17       	cp	r16, r20
 68e:	15 07       	cpc	r17, r21
 690:	26 07       	cpc	r18, r22
 692:	37 07       	cpc	r19, r23
 694:	09 f4       	brne	.+2      	; 0x698 <getErrors+0x2c>
 696:	90 e0       	ldi	r25, 0x00	; 0
 698:	89 0f       	add	r24, r25
}

uint8_t getErrors()
{
	uint8_t errors = 0;
	for(uint8_t i = 0; i < MAXPINS; i++)
 69a:	93 e0       	ldi	r25, 0x03	; 3
 69c:	ec 36       	cpi	r30, 0x6C	; 108
 69e:	f9 07       	cpc	r31, r25
 6a0:	61 f7       	brne	.-40     	; 0x67a <getErrors+0xe>
	{								
		errors += istValue[i] !=  sollValue[i];
	}
	return(errors);
}
 6a2:	1f 91       	pop	r17
 6a4:	0f 91       	pop	r16
 6a6:	08 95       	ret

000006a8 <getNet>:

uint8_t getNet(uint8_t isrec)
{	
 6a8:	df 92       	push	r13
 6aa:	ef 92       	push	r14
 6ac:	ff 92       	push	r15
 6ae:	0f 93       	push	r16
 6b0:	1f 93       	push	r17
 6b2:	cf 93       	push	r28
 6b4:	df 93       	push	r29
 6b6:	d8 2e       	mov	r13, r24
	uint8_t wirecnt = 0;
	usart_TX_string("\n\n\n");
 6b8:	8e e5       	ldi	r24, 0x5E	; 94
 6ba:	91 e0       	ldi	r25, 0x01	; 1
 6bc:	0e 94 57 00 	call	0xae	; 0xae <usart_TX_string>
	if(isrec) usart_TX_string("RECORDMODE\n");
 6c0:	dd 20       	and	r13, r13
 6c2:	19 f0       	breq	.+6      	; 0x6ca <getNet+0x22>
 6c4:	82 e6       	ldi	r24, 0x62	; 98
 6c6:	91 e0       	ldi	r25, 0x01	; 1
 6c8:	02 c0       	rjmp	.+4      	; 0x6ce <getNet+0x26>
	else    usart_TX_string("TESTMODE\n");
 6ca:	8e e6       	ldi	r24, 0x6E	; 110
 6cc:	91 e0       	ldi	r25, 0x01	; 1
 6ce:	0e 94 57 00 	call	0xae	; 0xae <usart_TX_string>
 6d2:	3c ef       	ldi	r19, 0xFC	; 252
 6d4:	e3 2e       	mov	r14, r19
 6d6:	32 e0       	ldi	r19, 0x02	; 2
 6d8:	f3 2e       	mov	r15, r19
 6da:	00 e6       	ldi	r16, 0x60	; 96
 6dc:	10 e0       	ldi	r17, 0x00	; 0
	}
	return(errors);
}

uint8_t getNet(uint8_t isrec)
{	
 6de:	d0 e0       	ldi	r29, 0x00	; 0
 6e0:	c0 e0       	ldi	r28, 0x00	; 0
	usart_TX_string("\n\n\n");
	if(isrec) usart_TX_string("RECORDMODE\n");
	else    usart_TX_string("TESTMODE\n");
	for(uint8_t i = 0; i < MAXPINS; i++)
	{
		clearAllPins();
 6e2:	0e 94 8b 02 	call	0x516	; 0x516 <clearAllPins>
		setPin(i);
 6e6:	8d 2f       	mov	r24, r29
 6e8:	0e 94 99 02 	call	0x532	; 0x532 <setPin>
	#else
		//round up by default
		__ticks_dc = (uint32_t)(ceil(fabs(__tmp)));
	#endif

	__builtin_avr_delay_cycles(__ticks_dc);
 6ec:	2f ef       	ldi	r18, 0xFF	; 255
 6ee:	83 ef       	ldi	r24, 0xF3	; 243
 6f0:	91 e0       	ldi	r25, 0x01	; 1
 6f2:	21 50       	subi	r18, 0x01	; 1
 6f4:	80 40       	sbci	r24, 0x00	; 0
 6f6:	90 40       	sbci	r25, 0x00	; 0
 6f8:	e1 f7       	brne	.-8      	; 0x6f2 <getNet+0x4a>
 6fa:	00 c0       	rjmp	.+0      	; 0x6fc <getNet+0x54>
 6fc:	00 00       	nop
		_delay_ms(WAITTIME_MS);
		uint32_t temp = getPins();
 6fe:	0e 94 ee 02 	call	0x5dc	; 0x5dc <getPins>
		if(isrec) sollValue[i] = temp;
 702:	dd 20       	and	r13, r13
 704:	29 f0       	breq	.+10     	; 0x710 <getNet+0x68>
 706:	f8 01       	movw	r30, r16
 708:	60 83       	st	Z, r22
 70a:	71 83       	std	Z+1, r23	; 0x01
 70c:	82 83       	std	Z+2, r24	; 0x02
 70e:	93 83       	std	Z+3, r25	; 0x03
		istValue[i] = temp;
 710:	f7 01       	movw	r30, r14
 712:	61 93       	st	Z+, r22
 714:	71 93       	st	Z+, r23
 716:	81 93       	st	Z+, r24
 718:	91 93       	st	Z+, r25
 71a:	7f 01       	movw	r14, r30
		if(!temp)  error(); //kein setPin gefunden
 71c:	61 15       	cp	r22, r1
 71e:	71 05       	cpc	r23, r1
 720:	81 05       	cpc	r24, r1
 722:	91 05       	cpc	r25, r1
 724:	19 f4       	brne	.+6      	; 0x72c <getNet+0x84>
 726:	0e 94 d4 01 	call	0x3a8	; 0x3a8 <error>
 72a:	0d c0       	rjmp	.+26     	; 0x746 <getNet+0x9e>
		else
		{
			while(temp)
			{
				wirecnt += (temp & 1);
 72c:	26 2f       	mov	r18, r22
 72e:	21 70       	andi	r18, 0x01	; 1
 730:	c2 0f       	add	r28, r18
				temp  >>= 1;
 732:	96 95       	lsr	r25
 734:	87 95       	ror	r24
 736:	77 95       	ror	r23
 738:	67 95       	ror	r22
		if(isrec) sollValue[i] = temp;
		istValue[i] = temp;
		if(!temp)  error(); //kein setPin gefunden
		else
		{
			while(temp)
 73a:	61 15       	cp	r22, r1
 73c:	71 05       	cpc	r23, r1
 73e:	81 05       	cpc	r24, r1
 740:	91 05       	cpc	r25, r1
 742:	a1 f7       	brne	.-24     	; 0x72c <getNet+0x84>
			{
				wirecnt += (temp & 1);
				temp  >>= 1;
			}
			wirecnt--; //das setPin subtrahieren
 744:	c1 50       	subi	r28, 0x01	; 1
{	
	uint8_t wirecnt = 0;
	usart_TX_string("\n\n\n");
	if(isrec) usart_TX_string("RECORDMODE\n");
	else    usart_TX_string("TESTMODE\n");
	for(uint8_t i = 0; i < MAXPINS; i++)
 746:	df 5f       	subi	r29, 0xFF	; 255
 748:	0c 5f       	subi	r16, 0xFC	; 252
 74a:	1f 4f       	sbci	r17, 0xFF	; 255
 74c:	dc 31       	cpi	r29, 0x1C	; 28
 74e:	49 f6       	brne	.-110    	; 0x6e2 <getNet+0x3a>
				temp  >>= 1;
			}
			wirecnt--; //das setPin subtrahieren
		}
	}
	if(isrec) writeEEPROM();
 750:	d1 10       	cpse	r13, r1
 752:	0e 94 01 02 	call	0x402	; 0x402 <writeEEPROM>
	return(wirecnt);
}
 756:	8c 2f       	mov	r24, r28
 758:	df 91       	pop	r29
 75a:	cf 91       	pop	r28
 75c:	1f 91       	pop	r17
 75e:	0f 91       	pop	r16
 760:	ff 90       	pop	r15
 762:	ef 90       	pop	r14
 764:	df 90       	pop	r13
 766:	08 95       	ret

00000768 <main>:

int main(void)
{
	init();
 768:	0e 94 4d 01 	call	0x29a	; 0x29a <init>
	usart_init();
 76c:	0e 94 49 00 	call	0x92	; 0x92 <usart_init>
	usart_TX_string("\n");
 770:	80 e6       	ldi	r24, 0x60	; 96
 772:	91 e0       	ldi	r25, 0x01	; 1
 774:	0e 94 57 00 	call	0xae	; 0xae <usart_TX_string>
	usart_TX_string("************************************\n");
 778:	88 e7       	ldi	r24, 0x78	; 120
 77a:	91 e0       	ldi	r25, 0x01	; 1
 77c:	0e 94 57 00 	call	0xae	; 0xae <usart_TX_string>
	usart_TX_string("***WIRING*COMPARATOR*FOR*28*NODES***\n");
 780:	8e e9       	ldi	r24, 0x9E	; 158
 782:	91 e0       	ldi	r25, 0x01	; 1
 784:	0e 94 57 00 	call	0xae	; 0xae <usart_TX_string>
	usart_TX_string("*********VERSION*2021/08/31*********\n");
 788:	84 ec       	ldi	r24, 0xC4	; 196
 78a:	91 e0       	ldi	r25, 0x01	; 1
 78c:	0e 94 57 00 	call	0xae	; 0xae <usart_TX_string>
	usart_TX_string("***©EBD-PW-EM*2020*(STLEU,25mmHg)***\n");
 790:	8a ee       	ldi	r24, 0xEA	; 234
 792:	91 e0       	ldi	r25, 0x01	; 1
 794:	0e 94 57 00 	call	0xae	; 0xae <usart_TX_string>
	usart_TX_string("************************************\n\n");
 798:	80 e1       	ldi	r24, 0x10	; 16
 79a:	92 e0       	ldi	r25, 0x02	; 2
 79c:	0e 94 57 00 	call	0xae	; 0xae <usart_TX_string>
	usart_TX_string("STARTUP: SERIAL OUT 38,4kBaud 8N1\n");
 7a0:	87 e3       	ldi	r24, 0x37	; 55
 7a2:	92 e0       	ldi	r25, 0x02	; 2
 7a4:	0e 94 57 00 	call	0xae	; 0xae <usart_TX_string>
	usart_TX_string("STARTUP: RESET COUNTERS\n");
 7a8:	8a e5       	ldi	r24, 0x5A	; 90
 7aa:	92 e0       	ldi	r25, 0x02	; 2
 7ac:	0e 94 57 00 	call	0xae	; 0xae <usart_TX_string>
	if(NOBUTTON)
 7b0:	82 9b       	sbis	0x10, 2	; 16
 7b2:	05 c0       	rjmp	.+10     	; 0x7be <main+0x56>
	{
		readEEPROM();
 7b4:	0e 94 3f 02 	call	0x47e	; 0x47e <readEEPROM>
		usart_TX_string("STARTUP: READ LAST RECORD FROM EEPROM\n");
 7b8:	83 e7       	ldi	r24, 0x73	; 115
 7ba:	92 e0       	ldi	r25, 0x02	; 2
 7bc:	02 c0       	rjmp	.+4      	; 0x7c2 <main+0x5a>
	}
	else usart_TX_string("STARTUP: LOAD REFERENCE NET (12,34,56...)\n");
 7be:	8a e9       	ldi	r24, 0x9A	; 154
 7c0:	92 e0       	ldi	r25, 0x02	; 2
 7c2:	0e 94 57 00 	call	0xae	; 0xae <usart_TX_string>
	showNet2Serial(sollValue);
 7c6:	80 e6       	ldi	r24, 0x60	; 96
 7c8:	90 e0       	ldi	r25, 0x00	; 0
 7ca:	0e 94 b4 00 	call	0x168	; 0x168 <showNet2Serial>
	done();
 7ce:	0e 94 55 01 	call	0x2aa	; 0x2aa <done>
	while (1)
	{
		while(NOBUTTON)
 7d2:	82 9b       	sbis	0x10, 2	; 16
 7d4:	0f c0       	rjmp	.+30     	; 0x7f4 <main+0x8c>
		{
			if(ISRECMODE) LEDON;
 7d6:	83 9b       	sbis	0x10, 3	; 16
 7d8:	02 c0       	rjmp	.+4      	; 0x7de <main+0x76>
 7da:	90 9a       	sbi	0x12, 0	; 18
 7dc:	01 c0       	rjmp	.+2      	; 0x7e0 <main+0x78>
			else LEDOFF;
 7de:	90 98       	cbi	0x12, 0	; 18
 7e0:	2f ef       	ldi	r18, 0xFF	; 255
 7e2:	83 ef       	ldi	r24, 0xF3	; 243
 7e4:	91 e0       	ldi	r25, 0x01	; 1
 7e6:	21 50       	subi	r18, 0x01	; 1
 7e8:	80 40       	sbci	r24, 0x00	; 0
 7ea:	90 40       	sbci	r25, 0x00	; 0
 7ec:	e1 f7       	brne	.-8      	; 0x7e6 <main+0x7e>
 7ee:	00 c0       	rjmp	.+0      	; 0x7f0 <main+0x88>
 7f0:	00 00       	nop
 7f2:	ef cf       	rjmp	.-34     	; 0x7d2 <main+0x6a>
			_delay_ms(WAITTIME_MS);
		}
		if(ISRECMODE)
 7f4:	83 9b       	sbis	0x10, 3	; 16
 7f6:	1f c0       	rjmp	.+62     	; 0x836 <main+0xce>
		{
			uint8_t wires = getNet(1);
 7f8:	81 e0       	ldi	r24, 0x01	; 1
 7fa:	0e 94 54 03 	call	0x6a8	; 0x6a8 <getNet>
			usart_TX_dec(wires);
 7fe:	90 e0       	ldi	r25, 0x00	; 0
 800:	0e 94 63 00 	call	0xc6	; 0xc6 <usart_TX_dec>
			usart_TX_string(" wires\n");
 804:	85 ec       	ldi	r24, 0xC5	; 197
 806:	92 e0       	ldi	r25, 0x02	; 2
 808:	0e 94 57 00 	call	0xae	; 0xae <usart_TX_string>
			showNet2Serial(istValue);
 80c:	8c ef       	ldi	r24, 0xFC	; 252
 80e:	92 e0       	ldi	r25, 0x02	; 2
 810:	0e 94 b4 00 	call	0x168	; 0x168 <showNet2Serial>
			passcount = 0;
 814:	10 92 fb 02 	sts	0x02FB, r1	; 0x8002fb <passcount+0x1>
 818:	10 92 fa 02 	sts	0x02FA, r1	; 0x8002fa <passcount>
			failcount = 0;
 81c:	10 92 f9 02 	sts	0x02F9, r1	; 0x8002f9 <__data_end+0x1>
 820:	10 92 f8 02 	sts	0x02F8, r1	; 0x8002f8 <__data_end>
			usart_TX_string("RESET COUNTERS\n");
 824:	83 e6       	ldi	r24, 0x63	; 99
 826:	92 e0       	ldi	r25, 0x02	; 2
 828:	0e 94 57 00 	call	0xae	; 0xae <usart_TX_string>
			done();
 82c:	0e 94 55 01 	call	0x2aa	; 0x2aa <done>
			usart_TX_string("\n\n\n");
 830:	8e e5       	ldi	r24, 0x5E	; 94
 832:	91 e0       	ldi	r25, 0x01	; 1
 834:	63 c0       	rjmp	.+198    	; 0x8fc <main+0x194>
		}
		else
		{
			uint8_t wires = getNet(0);
 836:	80 e0       	ldi	r24, 0x00	; 0
 838:	0e 94 54 03 	call	0x6a8	; 0x6a8 <getNet>
			usart_TX_dec(wires);
 83c:	90 e0       	ldi	r25, 0x00	; 0
 83e:	0e 94 63 00 	call	0xc6	; 0xc6 <usart_TX_dec>
			usart_TX_string(" wires\n");
 842:	85 ec       	ldi	r24, 0xC5	; 197
 844:	92 e0       	ldi	r25, 0x02	; 2
 846:	0e 94 57 00 	call	0xae	; 0xae <usart_TX_string>
			uint8_t errors = getErrors();
 84a:	0e 94 36 03 	call	0x66c	; 0x66c <getErrors>
 84e:	c8 2f       	mov	r28, r24
			usart_TX_dec(errors);
 850:	90 e0       	ldi	r25, 0x00	; 0
 852:	0e 94 63 00 	call	0xc6	; 0xc6 <usart_TX_dec>
			usart_TX_string(" errors ");
 856:	8d ec       	ldi	r24, 0xCD	; 205
 858:	92 e0       	ldi	r25, 0x02	; 2
 85a:	0e 94 57 00 	call	0xae	; 0xae <usart_TX_string>
			if(errors)
 85e:	cc 23       	and	r28, r28
 860:	61 f0       	breq	.+24     	; 0x87a <main+0x112>
			{
				fail();
 862:	0e 94 ab 01 	call	0x356	; 0x356 <fail>
				failcount++;
 866:	80 91 f8 02 	lds	r24, 0x02F8	; 0x8002f8 <__data_end>
 86a:	90 91 f9 02 	lds	r25, 0x02F9	; 0x8002f9 <__data_end+0x1>
 86e:	01 96       	adiw	r24, 0x01	; 1
 870:	90 93 f9 02 	sts	0x02F9, r25	; 0x8002f9 <__data_end+0x1>
 874:	80 93 f8 02 	sts	0x02F8, r24	; 0x8002f8 <__data_end>
 878:	0b c0       	rjmp	.+22     	; 0x890 <main+0x128>
			}
			else
			{
				pass();
 87a:	0e 94 80 01 	call	0x300	; 0x300 <pass>
				passcount++;
 87e:	80 91 fa 02 	lds	r24, 0x02FA	; 0x8002fa <passcount>
 882:	90 91 fb 02 	lds	r25, 0x02FB	; 0x8002fb <passcount+0x1>
 886:	01 96       	adiw	r24, 0x01	; 1
 888:	90 93 fb 02 	sts	0x02FB, r25	; 0x8002fb <passcount+0x1>
 88c:	80 93 fa 02 	sts	0x02FA, r24	; 0x8002fa <passcount>
			}
			showNet2Serial(istValue);
 890:	8c ef       	ldi	r24, 0xFC	; 252
 892:	92 e0       	ldi	r25, 0x02	; 2
 894:	0e 94 b4 00 	call	0x168	; 0x168 <showNet2Serial>
			usart_TX_string("\n");
 898:	80 e6       	ldi	r24, 0x60	; 96
 89a:	91 e0       	ldi	r25, 0x01	; 1
 89c:	0e 94 57 00 	call	0xae	; 0xae <usart_TX_string>
			usart_TX_string("TOTAL PASS: ");
 8a0:	86 ed       	ldi	r24, 0xD6	; 214
 8a2:	92 e0       	ldi	r25, 0x02	; 2
 8a4:	0e 94 57 00 	call	0xae	; 0xae <usart_TX_string>
			usart_TX_dec(passcount);
 8a8:	80 91 fa 02 	lds	r24, 0x02FA	; 0x8002fa <passcount>
 8ac:	90 91 fb 02 	lds	r25, 0x02FB	; 0x8002fb <passcount+0x1>
 8b0:	0e 94 63 00 	call	0xc6	; 0xc6 <usart_TX_dec>
			usart_TX_string("\n");
 8b4:	80 e6       	ldi	r24, 0x60	; 96
 8b6:	91 e0       	ldi	r25, 0x01	; 1
 8b8:	0e 94 57 00 	call	0xae	; 0xae <usart_TX_string>
			usart_TX_string("TOTAL FAIL: ");
 8bc:	83 ee       	ldi	r24, 0xE3	; 227
 8be:	92 e0       	ldi	r25, 0x02	; 2
 8c0:	0e 94 57 00 	call	0xae	; 0xae <usart_TX_string>
			usart_TX_dec(failcount);
 8c4:	80 91 f8 02 	lds	r24, 0x02F8	; 0x8002f8 <__data_end>
 8c8:	90 91 f9 02 	lds	r25, 0x02F9	; 0x8002f9 <__data_end+0x1>
 8cc:	0e 94 63 00 	call	0xc6	; 0xc6 <usart_TX_dec>
			usart_TX_string("\n");
 8d0:	80 e6       	ldi	r24, 0x60	; 96
 8d2:	91 e0       	ldi	r25, 0x01	; 1
 8d4:	0e 94 57 00 	call	0xae	; 0xae <usart_TX_string>
			usart_TX_string("TOTAL: ");
 8d8:	80 ef       	ldi	r24, 0xF0	; 240
 8da:	92 e0       	ldi	r25, 0x02	; 2
 8dc:	0e 94 57 00 	call	0xae	; 0xae <usart_TX_string>
			usart_TX_dec(passcount+failcount);
 8e0:	20 91 fa 02 	lds	r18, 0x02FA	; 0x8002fa <passcount>
 8e4:	30 91 fb 02 	lds	r19, 0x02FB	; 0x8002fb <passcount+0x1>
 8e8:	80 91 f8 02 	lds	r24, 0x02F8	; 0x8002f8 <__data_end>
 8ec:	90 91 f9 02 	lds	r25, 0x02F9	; 0x8002f9 <__data_end+0x1>
 8f0:	82 0f       	add	r24, r18
 8f2:	93 1f       	adc	r25, r19
 8f4:	0e 94 63 00 	call	0xc6	; 0xc6 <usart_TX_dec>
			usart_TX_string("\n");
 8f8:	80 e6       	ldi	r24, 0x60	; 96
 8fa:	91 e0       	ldi	r25, 0x01	; 1
 8fc:	0e 94 57 00 	call	0xae	; 0xae <usart_TX_string>
 900:	68 cf       	rjmp	.-304    	; 0x7d2 <main+0x6a>

00000902 <__muluhisi3>:
 902:	0e 94 8c 04 	call	0x918	; 0x918 <__umulhisi3>
 906:	a5 9f       	mul	r26, r21
 908:	90 0d       	add	r25, r0
 90a:	b4 9f       	mul	r27, r20
 90c:	90 0d       	add	r25, r0
 90e:	a4 9f       	mul	r26, r20
 910:	80 0d       	add	r24, r0
 912:	91 1d       	adc	r25, r1
 914:	11 24       	eor	r1, r1
 916:	08 95       	ret

00000918 <__umulhisi3>:
 918:	a2 9f       	mul	r26, r18
 91a:	b0 01       	movw	r22, r0
 91c:	b3 9f       	mul	r27, r19
 91e:	c0 01       	movw	r24, r0
 920:	a3 9f       	mul	r26, r19
 922:	70 0d       	add	r23, r0
 924:	81 1d       	adc	r24, r1
 926:	11 24       	eor	r1, r1
 928:	91 1d       	adc	r25, r1
 92a:	b2 9f       	mul	r27, r18
 92c:	70 0d       	add	r23, r0
 92e:	81 1d       	adc	r24, r1
 930:	11 24       	eor	r1, r1
 932:	91 1d       	adc	r25, r1
 934:	08 95       	ret

00000936 <_exit>:
 936:	f8 94       	cli

00000938 <__stop_program>:
 938:	ff cf       	rjmp	.-2      	; 0x938 <__stop_program>
